; Function Attrs: mustprogress nofree nounwind willreturn uwtable
define noundef ptr @Extra_UtilStrsav(ptr noundef readonly %0) local_unnamed_addr #5 {
  %2 = icmp eq ptr %0, null
  br i1 %2, label %8, label %3

3:                                                ; preds = %1
  %4 = tail call i64 @strlen(ptr noundef nonnull dereferenceable(1) %0) #14
  %5 = add i64 %4, 1
  %6 = tail call noalias ptr @malloc(i64 noundef %5) #17
  %7 = tail call ptr @strcpy(ptr noundef nonnull dereferenceable(1) %6, ptr noundef nonnull dereferenceable(1) %0) #16
  br label %8

8:                                                ; preds = %1, %3
  %.0 = phi ptr [ %6, %3 ], [ null, %1 ]
  ret ptr %.0
}